target datalayout = "e-m:e-p270:32:32-p271:32:32-p272:64:64-i64:64-i128:128-f80:128-n8:16:32:64-S128"
target triple = "x86_64-pc-linux-gnu"

%struct.ccan_list_node = type { ptr, ptr }
%struct.autoload_data = type { i64, i64, i64, %struct.ccan_list_head }
%struct.ccan_list_head = type { %struct.ccan_list_node }

; Function Attrs: nounwind sspstrong uwtable
define internal void @autoload_data_compact(ptr noundef %0) #0 {
  %2 = alloca ptr, align 8
  %3 = alloca ptr, align 8
  store ptr %0, ptr %2, align 8, !tbaa !40
  call void @llvm.lifetime.start.p0(i64 8, ptr %3) #30
  %4 = load ptr, ptr %2, align 8, !tbaa !40
  store ptr %4, ptr %3, align 8, !tbaa !152
  %5 = load ptr, ptr %3, align 8, !tbaa !152
  %6 = getelementptr inbounds nuw %struct.autoload_data, ptr %5, i32 0, i32 0
  %7 = load i64, ptr %6, align 8, !tbaa !185
  %8 = call i64 @rb_gc_location(i64 noundef %7)
  %9 = load ptr, ptr %3, align 8, !tbaa !152
  %10 = getelementptr inbounds nuw %struct.autoload_data, ptr %9, i32 0, i32 0
  store i64 %8, ptr %10, align 8, !tbaa !185
  %11 = load ptr, ptr %3, align 8, !tbaa !152
  %12 = getelementptr inbounds nuw %struct.autoload_data, ptr %11, i32 0, i32 1
  %13 = load i64, ptr %12, align 8, !tbaa !166
  %14 = call i64 @rb_gc_location(i64 noundef %13)
  %15 = load ptr, ptr %3, align 8, !tbaa !152
  %16 = getelementptr inbounds nuw %struct.autoload_data, ptr %15, i32 0, i32 1
  store i64 %14, ptr %16, align 8, !tbaa !166
  call void @llvm.lifetime.end.p0(i64 8, ptr %3) #30
  ret void
}