; Function Attrs: nounwind sspstrong uwtable
define internal void @autoload_data_compact(ptr noundef captures(none) %0) #0 {
  %2 = load i64, ptr %0, align 8, !tbaa !193
  %3 = tail call i64 @rb_gc_location(i64 noundef %2) #27
  store i64 %3, ptr %0, align 8, !tbaa !193
  %4 = getelementptr inbounds nuw i8, ptr %0, i64 8
  %5 = load i64, ptr %4, align 8, !tbaa !179
  %6 = tail call i64 @rb_gc_location(i64 noundef %5) #27
  store i64 %6, ptr %4, align 8, !tbaa !179
  ret void
}